; Function Attrs: mustprogress uwtable
define range(i32 -19, 2) i32 @SolveBoard(ptr noundef byval(%struct.deal) align 8 %0, i32 noundef %1, i32 noundef %2, i32 noundef %3, ptr noundef %4, i32 noundef %5) local_unnamed_addr #3 {
  %7 = tail call noundef zeroext i1 @_ZNK6System8ThreadOKEi(ptr noundef nonnull align 8 dereferenceable(200) @sysdep, i32 noundef %5)
  br i1 %7, label %8, label %11

8:                                                ; preds = %6
  %9 = tail call noundef ptr @_ZN6Memory6GetPtrEj(ptr noundef nonnull align 8 dereferenceable(56) @memory, i32 noundef %5)
  %10 = call noundef i32 @_Z18SolveBoardInternalP10ThreadDataRK4dealiiiP12futureTricks(ptr noundef %9, ptr noundef nonnull align 4 dereferenceable(96) %0, i32 noundef %1, i32 noundef %2, i32 noundef %3, ptr noundef %4)
  br label %11

11:                                               ; preds = %6, %8
  %.0 = phi i32 [ %10, %8 ], [ -15, %6 ]
  ret i32 %.0
}